; ModuleID = 'source-C-CXX/39/2825.c'
source_filename = "source-C-CXX/39/2825.c"
target datalayout = "e-m:e-p270:32:32-p271:32:32-p272:64:64-i64:64-f80:128-n8:16:32:64-S128"
target triple = "x86_64-pc-linux-gnu"

@.str = private unnamed_addr constant [16 x i8] c"%lf%lf%lf%lf%lf\00", align 1
@.str.1 = private unnamed_addr constant [14 x i8] c"Invalid input\00", align 1
@.str.2 = private unnamed_addr constant [6 x i8] c"%.4lf\00", align 1

; Function Attrs: nofree nounwind sspstrong uwtable
define dso_local i32 @main() local_unnamed_addr #0 {
  %1 = alloca double, align 8
  %2 = alloca double, align 8
  %3 = alloca double, align 8
  %4 = alloca double, align 8
  %5 = alloca double, align 8
  %6 = bitcast double* %1 to i8*
  call void @llvm.lifetime.start.p0i8(i64 8, i8* nonnull %6) #4
  %7 = bitcast double* %2 to i8*
  call void @llvm.lifetime.start.p0i8(i64 8, i8* nonnull %7) #4
  %8 = bitcast double* %3 to i8*
  call void @llvm.lifetime.start.p0i8(i64 8, i8* nonnull %8) #4
  %9 = bitcast double* %4 to i8*
  call void @llvm.lifetime.start.p0i8(i64 8, i8* nonnull %9) #4
  %10 = bitcast double* %5 to i8*
  call void @llvm.lifetime.start.p0i8(i64 8, i8* nonnull %10) #4
  %11 = call i32 (i8*, ...) @__isoc99_scanf(i8* getelementptr inbounds ([16 x i8], [16 x i8]* @.str, i64 0, i64 0), double* nonnull %1, double* nonnull %2, double* nonnull %3, double* nonnull %4, double* nonnull %5)
  %12 = load double, double* %1, align 8, !tbaa !5
  %13 = load double, double* %2, align 8, !tbaa !5
  %14 = fadd double %12, %13
  %15 = load double, double* %3, align 8, !tbaa !5
  %16 = fadd double %14, %15
  %17 = load double, double* %4, align 8, !tbaa !5
  %18 = fadd double %16, %17
  %19 = fmul double %18, 5.000000e-01
  %20 = fsub double %19, %12
  %21 = fcmp olt double %20, 0.000000e+00
  br i1 %21, label %31, label %22

22:                                               ; preds = %0
  %23 = fsub double %19, %13
  %24 = fcmp olt double %23, 0.000000e+00
  br i1 %24, label %31, label %25

25:                                               ; preds = %22
  %26 = fsub double %19, %15
  %27 = fcmp olt double %26, 0.000000e+00
  br i1 %27, label %31, label %28

28:                                               ; preds = %25
  %29 = fsub double %19, %17
  %30 = fcmp olt double %29, 0.000000e+00
  br i1 %30, label %31, label %33

31:                                               ; preds = %28, %25, %22, %0
  %32 = call i32 (i8*, ...) @printf(i8* nonnull dereferenceable(1) getelementptr inbounds ([14 x i8], [14 x i8]* @.str.1, i64 0, i64 0))
  br label %60

33:                                               ; preds = %28
  %34 = fmul double %12, %13
  %35 = fmul double %34, %15
  %36 = insertelement <2 x double> poison, double %20, i32 0
  %37 = insertelement <2 x double> %36, double %35, i32 1
  %38 = insertelement <2 x double> poison, double %23, i32 0
  %39 = insertelement <2 x double> %38, double %17, i32 1
  %40 = fmul <2 x double> %37, %39
  %41 = load double, double* %5, align 8, !tbaa !5
  %42 = fmul double %41, 1.000000e+02
  %43 = fdiv double %42, 3.600000e+02
  %44 = call double @cos(double %43) #4
  %45 = insertelement <2 x double> poison, double %26, i32 0
  %46 = insertelement <2 x double> %45, double %44, i32 1
  %47 = fmul <2 x double> %46, %40
  %48 = load double, double* %5, align 8, !tbaa !5
  %49 = fmul double %48, 1.000000e+02
  %50 = fdiv double %49, 3.600000e+02
  %51 = call double @cos(double %50) #4
  %52 = insertelement <2 x double> poison, double %29, i32 0
  %53 = insertelement <2 x double> %52, double %51, i32 1
  %54 = fmul <2 x double> %53, %47
  %55 = shufflevector <2 x double> %54, <2 x double> poison, <2 x i32> <i32 1, i32 undef>
  %56 = fsub <2 x double> %54, %55
  %57 = extractelement <2 x double> %56, i32 0
  %58 = call double @sqrt(double %57) #4
  %59 = call i32 (i8*, ...) @printf(i8* nonnull dereferenceable(1) getelementptr inbounds ([6 x i8], [6 x i8]* @.str.2, i64 0, i64 0), double %58)
  br label %60

60:                                               ; preds = %33, %31
  call void @llvm.lifetime.end.p0i8(i64 8, i8* nonnull %10) #4
  call void @llvm.lifetime.end.p0i8(i64 8, i8* nonnull %9) #4
  call void @llvm.lifetime.end.p0i8(i64 8, i8* nonnull %8) #4
  call void @llvm.lifetime.end.p0i8(i64 8, i8* nonnull %7) #4
  call void @llvm.lifetime.end.p0i8(i64 8, i8* nonnull %6) #4
  ret i32 0
}

; Function Attrs: argmemonly mustprogress nofree nosync nounwind willreturn
declare void @llvm.lifetime.start.p0i8(i64 immarg, i8* nocapture) #1

; Function Attrs: nofree nounwind
declare noundef i32 @__isoc99_scanf(i8* nocapture noundef readonly, ...) local_unnamed_addr #2

; Function Attrs: nofree nounwind
declare noundef i32 @printf(i8* nocapture noundef readonly, ...) local_unnamed_addr #2

; Function Attrs: mustprogress nofree nounwind willreturn
declare double @sqrt(double) local_unnamed_addr #3

; Function Attrs: mustprogress nofree nounwind willreturn
declare double @cos(double) local_unnamed_addr #3

; Function Attrs: argmemonly mustprogress nofree nosync nounwind willreturn
declare void @llvm.lifetime.end.p0i8(i64 immarg, i8* nocapture) #1


!llvm.module.flags = !{!0, !1, !2, !3}
!llvm.ident = !{!4}

!0 = !{i32 1, !"wchar_size", i32 4}
!1 = !{i32 7, !"PIC Level", i32 2}
!2 = !{i32 7, !"PIE Level", i32 2}
!3 = !{i32 7, !"uwtable", i32 1}
!4 = !{!"clang version 13.0.0"}
!5 = !{!6, !6, i64 0}
!6 = !{!"double", !7, i64 0}
!7 = !{!"omnipotent char", !8, i64 0}
!8 = !{!"Simple C/C++ TBAA"}
